; Function Attrs: nounwind uwtable
define <2 x float> @b2Joint_GetConstraintForce(i64 %0) local_unnamed_addr #8 {
  %.sroa.2.0.extract.shift = lshr i64 %0, 32
  %2 = trunc nuw i64 %.sroa.2.0.extract.shift to i32
  %3 = and i32 %2, 65535
  %4 = tail call ptr @b2GetWorld(i32 noundef %3) #10
  %5 = getelementptr inbounds nuw i8, ptr %4, i64 1112
  %.val.i = load ptr, ptr %5, align 8, !tbaa !10
  %6 = shl i64 %0, 32
  %sext.i = add i64 %6, -4294967296
  %7 = ashr exact i64 %sext.i, 32
  %8 = getelementptr inbounds %struct.b2Joint, ptr %.val.i, i64 %7
  %9 = getelementptr inbounds nuw i8, ptr %8, i64 8
  %10 = load i32, ptr %9, align 8, !tbaa !53
  %11 = icmp eq i32 %10, 2
  br i1 %11, label %12, label %18

12:                                               ; preds = %1
  %13 = getelementptr inbounds nuw i8, ptr %8, i64 12
  %14 = load i32, ptr %13, align 4, !tbaa !55
  %15 = sext i32 %14 to i64
  %.idx.i = mul nsw i64 %15, 56
  %16 = getelementptr i8, ptr %4, i64 368
  %17 = getelementptr i8, ptr %16, i64 %.idx.i
  br label %b2GetJointSim.exit

18:                                               ; preds = %1
  %19 = getelementptr inbounds nuw i8, ptr %4, i64 1072
  %.val12.i = load ptr, ptr %19, align 8, !tbaa !56
  %20 = sext i32 %10 to i64
  %21 = getelementptr inbounds %struct.b2SolverSet, ptr %.val12.i, i64 %20, i32 2
  br label %b2GetJointSim.exit

b2GetJointSim.exit:                               ; preds = %12, %18
  %.val11.sink.in.i = phi ptr [ %21, %18 ], [ %17, %12 ]
  %.val11.sink.i = load ptr, ptr %.val11.sink.in.i, align 8, !tbaa !14
  %.sink13.in.i = getelementptr inbounds nuw i8, ptr %8, i64 16
  %.sink13.i = load i32, ptr %.sink13.in.i, align 8, !tbaa !59
  %22 = sext i32 %.sink13.i to i64
  %23 = getelementptr inbounds %struct.b2JointSim, ptr %.val11.sink.i, i64 %22
  %24 = getelementptr inbounds nuw i8, ptr %8, i64 64
  %25 = load i32, ptr %24, align 8, !tbaa !140
  switch i32 %25, label %40 [
    i32 0, label %26
    i32 1, label %28
    i32 2, label %30
    i32 7, label %38
    i32 4, label %32
    i32 5, label %34
    i32 6, label %36
  ]

26:                                               ; preds = %b2GetJointSim.exit
  %27 = tail call <2 x float> @b2GetDistanceJointForce(ptr noundef nonnull %4, ptr noundef %23) #10
  br label %40

28:                                               ; preds = %b2GetJointSim.exit
  %29 = tail call <2 x float> @b2GetMotorJointForce(ptr noundef nonnull %4, ptr noundef %23) #10
  br label %40

30:                                               ; preds = %b2GetJointSim.exit
  %31 = tail call <2 x float> @b2GetMouseJointForce(ptr noundef nonnull %4, ptr noundef %23) #10
  br label %40

32:                                               ; preds = %b2GetJointSim.exit
  %33 = tail call <2 x float> @b2GetPrismaticJointForce(ptr noundef nonnull %4, ptr noundef %23) #10
  br label %40

34:                                               ; preds = %b2GetJointSim.exit
  %35 = tail call <2 x float> @b2GetRevoluteJointForce(ptr noundef nonnull %4, ptr noundef %23) #10
  br label %40

36:                                               ; preds = %b2GetJointSim.exit
  %37 = tail call <2 x float> @b2GetWeldJointForce(ptr noundef nonnull %4, ptr noundef %23) #10
  br label %40

38:                                               ; preds = %b2GetJointSim.exit
  %39 = tail call <2 x float> @b2GetWheelJointForce(ptr noundef nonnull %4, ptr noundef %23) #10
  br label %40

40:                                               ; preds = %b2GetJointSim.exit, %38, %36, %34, %32, %30, %28, %26
  %.sroa.018.0 = phi <2 x float> [ %39, %38 ], [ %37, %36 ], [ %35, %34 ], [ %33, %32 ], [ %31, %30 ], [ %29, %28 ], [ %27, %26 ], [ zeroinitializer, %b2GetJointSim.exit ]
  ret <2 x float> %.sroa.018.0
}